; Function Attrs: mustprogress nounwind uwtable
define internal noundef zeroext i1 @_ZN12_GLOBAL__N_119DryRunCommandRunner14WaitForCommandEPN13CommandRunner6ResultE(ptr noundef nonnull align 8 captures(none) dereferenceable(88) %0, ptr noundef writeonly captures(none) %1) unnamed_addr #1 align 2 personality ptr @__gxx_personality_v0 {
  %3 = getelementptr inbounds nuw i8, ptr %0, i64 56
  %4 = getelementptr inbounds nuw i8, ptr %0, i64 24
  %5 = load ptr, ptr %3, align 8, !tbaa !309
  %6 = load ptr, ptr %4, align 8, !tbaa !309
  %7 = icmp ne ptr %5, %6
  br i1 %7, label %8, label %24

8:                                                ; preds = %2
  %9 = getelementptr inbounds nuw i8, ptr %1, i64 8
  store i32 0, ptr %9, align 8, !tbaa !252
  %10 = load ptr, ptr %6, align 8, !tbaa !88
  store ptr %10, ptr %1, align 8, !tbaa !250
  %11 = getelementptr inbounds nuw i8, ptr %0, i64 40
  %12 = load ptr, ptr %11, align 8, !tbaa !310
  %13 = getelementptr inbounds i8, ptr %12, i64 -8
  %.not.i.i = icmp eq ptr %6, %13
  br i1 %.not.i.i, label %16, label %14

14:                                               ; preds = %8
  %15 = getelementptr inbounds nuw i8, ptr %6, i64 8
  br label %_ZNSt5queueIP4EdgeSt5dequeIS1_SaIS1_EEE3popEv.exit

16:                                               ; preds = %8
  %17 = getelementptr inbounds nuw i8, ptr %0, i64 32
  %18 = load ptr, ptr %17, align 8, !tbaa !311
  tail call void @_ZdlPvm(ptr noundef %18, i64 noundef 512) #28
  %19 = getelementptr inbounds nuw i8, ptr %0, i64 48
  %20 = load ptr, ptr %19, align 8, !tbaa !303
  %21 = getelementptr inbounds nuw i8, ptr %20, i64 8
  store ptr %21, ptr %19, align 8, !tbaa !312
  %22 = load ptr, ptr %21, align 8, !tbaa !135
  store ptr %22, ptr %17, align 8, !tbaa !313
  %23 = getelementptr inbounds nuw i8, ptr %22, i64 512
  store ptr %23, ptr %11, align 8, !tbaa !314
  br label %_ZNSt5queueIP4EdgeSt5dequeIS1_SaIS1_EEE3popEv.exit

_ZNSt5queueIP4EdgeSt5dequeIS1_SaIS1_EEE3popEv.exit: ; preds = %14, %16
  %storemerge.i.i = phi ptr [ %15, %14 ], [ %22, %16 ]
  store ptr %storemerge.i.i, ptr %4, align 8, !tbaa !315
  br label %24

24:                                               ; preds = %2, %_ZNSt5queueIP4EdgeSt5dequeIS1_SaIS1_EEE3popEv.exit
  ret i1 %7
}